target datalayout = "e-m:e-p270:32:32-p271:32:32-p272:64:64-i64:64-i128:128-f80:128-n8:16:32:64-S128"
target triple = "x86_64-pc-linux-gnu"

%struct.anon = type { ptr, ptr, ptr, i32 }
%struct.fsck_options = type { ptr, ptr, i32, i32, ptr, %struct.oidset, %struct.oidset, %struct.oidset, %struct.oidset, %struct.oidset, ptr }
%struct.oidset = type { %struct.kh_oid_set }
%struct.kh_oid_set = type { i32, i32, i32, i32, ptr, ptr, ptr }

@.str = private unnamed_addr constant [25 x i8] c"Unhandled message id: %s\00", align 1
@max_tree_entry_len = internal global i64 4096, align 8
@.str.1 = private unnamed_addr constant [39 x i8] c"unable to parse max tree entry len: %s\00", align 1
@.str.2 = private unnamed_addr constant [23 x i8] c"Cannot demote %s to %s\00", align 1
@.str.102 = private unnamed_addr constant [6 x i8] c"error\00", align 1
@.str.103 = private unnamed_addr constant [5 x i8] c"warn\00", align 1
@.str.104 = private unnamed_addr constant [7 x i8] c"ignore\00", align 1
@.str.105 = private unnamed_addr constant [32 x i8] c"Unknown fsck message type: '%s'\00", align 1
@.str.106 = private unnamed_addr constant [27 x i8] c"size_t overflow: %lu * %lu\00", align 1

; Function Attrs: nounwind uwtable
define internal i32 @fsck_msg_type(i32 noundef %0, ptr noundef %1) #0 {
  %3 = alloca i32, align 4
  %4 = alloca i32, align 4
  %5 = alloca ptr, align 8
  %6 = alloca i32, align 4
  store i32 %0, ptr %4, align 4, !tbaa !11
  store ptr %1, ptr %5, align 8, !tbaa !24
  %7 = load ptr, ptr %5, align 8, !tbaa !24
  %8 = getelementptr inbounds nuw %struct.fsck_options, ptr %7, i32 0, i32 4
  %9 = load ptr, ptr %8, align 8, !tbaa !26
  %10 = icmp ne ptr %9, null
  br i1 %10, label %27, label %11

11:                                               ; preds = %2
  call void @llvm.lifetime.start.p0(i64 4, ptr %6) #11
  %12 = load i32, ptr %4, align 4, !tbaa !11
  %13 = zext i32 %12 to i64
  %14 = getelementptr inbounds nuw [67 x %struct.anon], ptr @msg_id_info, i64 0, i64 %13
  %15 = getelementptr inbounds nuw %struct.anon, ptr %14, i32 0, i32 3
  %16 = load i32, ptr %15, align 8, !tbaa !37
  store i32 %16, ptr %6, align 4, !tbaa !11
  %17 = load ptr, ptr %5, align 8, !tbaa !24
  %18 = getelementptr inbounds nuw %struct.fsck_options, ptr %17, i32 0, i32 2
  %19 = load i32, ptr %18, align 8, !tbaa !38
  %20 = icmp ne i32 %19, 0
  br i1 %20, label %21, label %25

21:                                               ; preds = %11
  %22 = load i32, ptr %6, align 4, !tbaa !11
  %23 = icmp eq i32 %22, 4
  br i1 %23, label %24, label %25

24:                                               ; preds = %21
  store i32 3, ptr %6, align 4, !tbaa !11
  br label %25

25:                                               ; preds = %24, %21, %11
  %26 = load i32, ptr %6, align 4, !tbaa !11
  store i32 %26, ptr %3, align 4
  call void @llvm.lifetime.end.p0(i64 4, ptr %6) #11
  br label %35

27:                                               ; preds = %2
  %28 = load ptr, ptr %5, align 8, !tbaa !24
  %29 = getelementptr inbounds nuw %struct.fsck_options, ptr %28, i32 0, i32 4
  %30 = load ptr, ptr %29, align 8, !tbaa !26
  %31 = load i32, ptr %4, align 4, !tbaa !11
  %32 = zext i32 %31 to i64
  %33 = getelementptr inbounds nuw i32, ptr %30, i64 %32
  %34 = load i32, ptr %33, align 4, !tbaa !11
  store i32 %34, ptr %3, align 4
  br label %35

35:                                               ; preds = %27, %25
  %36 = load i32, ptr %3, align 4
  ret i32 %36
}

; Function Attrs: inlinehint nounwind uwtable
define internal i64 @st_mult(i64 noundef %0, i64 noundef %1) #2 {
  %3 = alloca i64, align 8
  %4 = alloca i64, align 8
  store i64 %0, ptr %3, align 8, !tbaa !35
  store i64 %1, ptr %4, align 8, !tbaa !35
  %5 = load i64, ptr %3, align 8, !tbaa !35
  %6 = icmp ne i64 %5, 0
  br i1 %6, label %7, label %15

7:                                                ; preds = %2
  %8 = load i64, ptr %4, align 8, !tbaa !35
  %9 = load i64, ptr %3, align 8, !tbaa !35
  %10 = udiv i64 -1, %9
  %11 = icmp ugt i64 %8, %10
  br i1 %11, label %12, label %15

12:                                               ; preds = %7
  %13 = load i64, ptr %3, align 8, !tbaa !35
  %14 = load i64, ptr %4, align 8, !tbaa !35
  call void (ptr, ...) @die(ptr noundef @.str.106, i64 noundef %13, i64 noundef %14) #13
  unreachable

15:                                               ; preds = %7, %2
  %16 = load i64, ptr %3, align 8, !tbaa !35
  %17 = load i64, ptr %4, align 8, !tbaa !35
  %18 = mul i64 %16, %17
  ret i64 %18
}

; Function Attrs: nounwind uwtable
define dso_local void @fsck_set_msg_type_from_ids(ptr noundef %0, i32 noundef %1, i32 noundef %2) #0 {
  %4 = alloca ptr, align 8
  %5 = alloca i32, align 4
  %6 = alloca i32, align 4
  %7 = alloca i32, align 4
  %8 = alloca ptr, align 8
  store ptr %0, ptr %4, align 8, !tbaa !24
  store i32 %1, ptr %5, align 4, !tbaa !11
  store i32 %2, ptr %6, align 4, !tbaa !11
  %9 = load ptr, ptr %4, align 8, !tbaa !24
  %10 = getelementptr inbounds nuw %struct.fsck_options, ptr %9, i32 0, i32 4
  %11 = load ptr, ptr %10, align 8, !tbaa !26
  %12 = icmp ne ptr %11, null
  br i1 %12, label %34, label %13

13:                                               ; preds = %3
  call void @llvm.lifetime.start.p0(i64 4, ptr %7) #11
  call void @llvm.lifetime.start.p0(i64 8, ptr %8) #11
  %14 = call i64 @st_mult(i64 noundef 4, i64 noundef 66)
  %15 = call ptr @xmalloc(i64 noundef %14)
  store ptr %15, ptr %8, align 8, !tbaa !33
  store i32 0, ptr %7, align 4, !tbaa !11
  br label %16

16:                                               ; preds = %27, %13
  %17 = load i32, ptr %7, align 4, !tbaa !11
  %18 = icmp slt i32 %17, 66
  br i1 %18, label %19, label %30

19:                                               ; preds = %16
  %20 = load i32, ptr %7, align 4, !tbaa !11
  %21 = load ptr, ptr %4, align 8, !tbaa !24
  %22 = call i32 @fsck_msg_type(i32 noundef %20, ptr noundef %21)
  %23 = load ptr, ptr %8, align 8, !tbaa !33
  %24 = load i32, ptr %7, align 4, !tbaa !11
  %25 = sext i32 %24 to i64
  %26 = getelementptr inbounds i32, ptr %23, i64 %25
  store i32 %22, ptr %26, align 4, !tbaa !11
  br label %27

27:                                               ; preds = %19
  %28 = load i32, ptr %7, align 4, !tbaa !11
  %29 = add nsw i32 %28, 1
  store i32 %29, ptr %7, align 4, !tbaa !11
  br label %16, !llvm.loop !34

30:                                               ; preds = %16
  %31 = load ptr, ptr %8, align 8, !tbaa !33
  %32 = load ptr, ptr %4, align 8, !tbaa !24
  %33 = getelementptr inbounds nuw %struct.fsck_options, ptr %32, i32 0, i32 4
  store ptr %31, ptr %33, align 8, !tbaa !26
  call void @llvm.lifetime.end.p0(i64 8, ptr %8) #11
  call void @llvm.lifetime.end.p0(i64 4, ptr %7) #11
  br label %34

34:                                               ; preds = %30, %3
  %35 = load i32, ptr %6, align 4, !tbaa !11
  %36 = load ptr, ptr %4, align 8, !tbaa !24
  %37 = getelementptr inbounds nuw %struct.fsck_options, ptr %36, i32 0, i32 4
  %38 = load ptr, ptr %37, align 8, !tbaa !26
  %39 = load i32, ptr %5, align 4, !tbaa !11
  %40 = zext i32 %39 to i64
  %41 = getelementptr inbounds nuw i32, ptr %38, i64 %40
  store i32 %35, ptr %41, align 4, !tbaa !11
  ret void
}

; Function Attrs: nounwind uwtable
define internal i32 @parse_msg_type(ptr noundef %0) #0 {
  %2 = alloca i32, align 4
  %3 = alloca ptr, align 8
  store ptr %0, ptr %3, align 8, !tbaa !9
  %4 = load ptr, ptr %3, align 8, !tbaa !9
  %5 = call i32 @strcmp(ptr noundef %4, ptr noundef @.str.102) #12
  %6 = icmp ne i32 %5, 0
  br i1 %6, label %8, label %7

7:                                                ; preds = %1
  store i32 3, ptr %2, align 4
  br label %20

8:                                                ; preds = %1
  %9 = load ptr, ptr %3, align 8, !tbaa !9
  %10 = call i32 @strcmp(ptr noundef %9, ptr noundef @.str.103) #12
  %11 = icmp ne i32 %10, 0
  br i1 %11, label %13, label %12

12:                                               ; preds = %8
  store i32 4, ptr %2, align 4
  br label %20

13:                                               ; preds = %8
  %14 = load ptr, ptr %3, align 8, !tbaa !9
  %15 = call i32 @strcmp(ptr noundef %14, ptr noundef @.str.104) #12
  %16 = icmp ne i32 %15, 0
  br i1 %16, label %18, label %17

17:                                               ; preds = %13
  store i32 0, ptr %2, align 4
  br label %20

18:                                               ; preds = %13
  %19 = load ptr, ptr %3, align 8, !tbaa !9
  call void (ptr, ...) @die(ptr noundef @.str.105, ptr noundef %19) #13
  unreachable

20:                                               ; preds = %17, %12, %7
  %21 = load i32, ptr %2, align 4
  ret i32 %21
}

; Function Attrs: nounwind uwtable
define internal i32 @parse_msg_id(ptr noundef %0) #0 {
  %2 = alloca i32, align 4
  %3 = alloca ptr, align 8
  %4 = alloca i32, align 4
  %5 = alloca i32, align 4
  store ptr %0, ptr %3, align 8, !tbaa !9
  call void @llvm.lifetime.start.p0(i64 4, ptr %4) #11
  call void @prepare_msg_ids()
  store i32 0, ptr %4, align 4, !tbaa !11
  br label %6

6:                                                ; preds = %21, %1
  %7 = load i32, ptr %4, align 4, !tbaa !11
  %8 = icmp slt i32 %7, 66
  br i1 %8, label %9, label %24

9:                                                ; preds = %6
  %10 = load ptr, ptr %3, align 8, !tbaa !9
  %11 = load i32, ptr %4, align 4, !tbaa !11
  %12 = sext i32 %11 to i64
  %13 = getelementptr inbounds [67 x %struct.anon], ptr @msg_id_info, i64 0, i64 %12
  %14 = getelementptr inbounds nuw %struct.anon, ptr %13, i32 0, i32 1
  %15 = load ptr, ptr %14, align 8, !tbaa !17
  %16 = call i32 @strcmp(ptr noundef %10, ptr noundef %15) #12
  %17 = icmp ne i32 %16, 0
  br i1 %17, label %20, label %18

18:                                               ; preds = %9
  %19 = load i32, ptr %4, align 4, !tbaa !11
  store i32 %19, ptr %2, align 4
  store i32 1, ptr %5, align 4
  br label %25

20:                                               ; preds = %9
  br label %21

21:                                               ; preds = %20
  %22 = load i32, ptr %4, align 4, !tbaa !11
  %23 = add nsw i32 %22, 1
  store i32 %23, ptr %4, align 4, !tbaa !11
  br label %6, !llvm.loop !23

24:                                               ; preds = %6
  store i32 -1, ptr %2, align 4
  store i32 1, ptr %5, align 4
  br label %25

25:                                               ; preds = %24, %18
  call void @llvm.lifetime.end.p0(i64 4, ptr %4) #11
  %26 = load i32, ptr %2, align 4
  ret i32 %26
}

; Function Attrs: nounwind uwtable
define dso_local void @fsck_set_msg_type(ptr noundef %0, ptr noundef %1, ptr noundef %2) #0 {
  %4 = alloca ptr, align 8
  %5 = alloca ptr, align 8
  %6 = alloca ptr, align 8
  %7 = alloca i32, align 4
  %8 = alloca ptr, align 8
  %9 = alloca i32, align 4
  %10 = alloca ptr, align 8
  store ptr %0, ptr %4, align 8, !tbaa !24
  store ptr %1, ptr %5, align 8, !tbaa !9
  store ptr %2, ptr %6, align 8, !tbaa !9
  call void @llvm.lifetime.start.p0(i64 4, ptr %7) #11
  %11 = load ptr, ptr %5, align 8, !tbaa !9
  %12 = call i32 @parse_msg_id(ptr noundef %11)
  store i32 %12, ptr %7, align 4, !tbaa !11
  call void @llvm.lifetime.start.p0(i64 8, ptr %8) #11
  store ptr null, ptr %8, align 8, !tbaa !9
  call void @llvm.lifetime.start.p0(i64 4, ptr %9) #11
  %13 = load i32, ptr %7, align 4, !tbaa !11
  %14 = icmp slt i32 %13, 0
  br i1 %14, label %15, label %17

15:                                               ; preds = %3
  %16 = load ptr, ptr %5, align 8, !tbaa !9
  call void (ptr, ...) @die(ptr noundef @.str, ptr noundef %16) #13
  unreachable

17:                                               ; preds = %3
  %18 = load i32, ptr %7, align 4, !tbaa !11
  %19 = icmp eq i32 %18, 53
  br i1 %19, label %20, label %42

20:                                               ; preds = %17
  call void @llvm.lifetime.start.p0(i64 8, ptr %10) #11
  %21 = load ptr, ptr %6, align 8, !tbaa !9
  %22 = call ptr @strchr(ptr noundef %21, i32 noundef 58) #12
  store ptr %22, ptr %10, align 8, !tbaa !9
  %23 = load ptr, ptr %10, align 8, !tbaa !9
  %24 = icmp ne ptr %23, null
  br i1 %24, label %25, label %41

25:                                               ; preds = %20
  %26 = load ptr, ptr %6, align 8, !tbaa !9
  %27 = load ptr, ptr %10, align 8, !tbaa !9
  %28 = load ptr, ptr %6, align 8, !tbaa !9
  %29 = ptrtoint ptr %27 to i64
  %30 = ptrtoint ptr %28 to i64
  %31 = sub i64 %29, %30
  %32 = call ptr @xmemdupz(ptr noundef %26, i64 noundef %31)
  store ptr %32, ptr %8, align 8, !tbaa !9
  store ptr %32, ptr %6, align 8, !tbaa !9
  %33 = load ptr, ptr %10, align 8, !tbaa !9
  %34 = getelementptr inbounds nuw i8, ptr %33, i32 1
  store ptr %34, ptr %10, align 8, !tbaa !9
  %35 = load ptr, ptr %10, align 8, !tbaa !9
  %36 = call i32 @git_parse_ssize_t(ptr noundef %35, ptr noundef @max_tree_entry_len)
  %37 = icmp ne i32 %36, 0
  br i1 %37, label %40, label %38

38:                                               ; preds = %25
  %39 = load ptr, ptr %10, align 8, !tbaa !9
  call void (ptr, ...) @die(ptr noundef @.str.1, ptr noundef %39) #13
  unreachable

40:                                               ; preds = %25
  br label %41

41:                                               ; preds = %40, %20
  call void @llvm.lifetime.end.p0(i64 8, ptr %10) #11
  br label %42

42:                                               ; preds = %41, %17
  %43 = load ptr, ptr %6, align 8, !tbaa !9
  %44 = call i32 @parse_msg_type(ptr noundef %43)
  store i32 %44, ptr %9, align 4, !tbaa !11
  %45 = load i32, ptr %9, align 4, !tbaa !11
  %46 = icmp ne i32 %45, 3
  br i1 %46, label %47, label %57

47:                                               ; preds = %42
  %48 = load i32, ptr %7, align 4, !tbaa !11
  %49 = sext i32 %48 to i64
  %50 = getelementptr inbounds [67 x %struct.anon], ptr @msg_id_info, i64 0, i64 %49
  %51 = getelementptr inbounds nuw %struct.anon, ptr %50, i32 0, i32 3
  %52 = load i32, ptr %51, align 8, !tbaa !37
  %53 = icmp eq i32 %52, 2
  br i1 %53, label %54, label %57

54:                                               ; preds = %47
  %55 = load ptr, ptr %5, align 8, !tbaa !9
  %56 = load ptr, ptr %6, align 8, !tbaa !9
  call void (ptr, ...) @die(ptr noundef @.str.2, ptr noundef %55, ptr noundef %56) #13
  unreachable

57:                                               ; preds = %47, %42
  %58 = load ptr, ptr %4, align 8, !tbaa !24
  %59 = load i32, ptr %7, align 4, !tbaa !11
  %60 = load i32, ptr %9, align 4, !tbaa !11
  call void @fsck_set_msg_type_from_ids(ptr noundef %58, i32 noundef %59, i32 noundef %60)
  %61 = load ptr, ptr %8, align 8, !tbaa !9
  call void @free(ptr noundef %61) #11
  call void @llvm.lifetime.end.p0(i64 4, ptr %9) #11
  call void @llvm.lifetime.end.p0(i64 8, ptr %8) #11
  call void @llvm.lifetime.end.p0(i64 4, ptr %7) #11
  ret void
}