; Function Attrs: nounwind uwtable
define dso_local void @fsck_set_msg_type(ptr noundef captures(none) %0, ptr noundef %1, ptr noundef %2) local_unnamed_addr #0 {
  tail call fastcc void @prepare_msg_ids()
  br label %4

4:                                                ; preds = %8, %3
  %indvars.iv.i = phi i64 [ 0, %3 ], [ %indvars.iv.next.i, %8 ]
  %5 = getelementptr inbounds nuw [67 x %struct.anon], ptr @msg_id_info, i64 0, i64 %indvars.iv.i, i32 1
  %6 = load ptr, ptr %5, align 8, !tbaa !13
  %7 = tail call i32 @strcmp(ptr noundef nonnull readonly dereferenceable(1) %1, ptr noundef nonnull dereferenceable(1) %6) #17
  %.not.i = icmp eq i32 %7, 0
  br i1 %.not.i, label %parse_msg_id.exit, label %8

8:                                                ; preds = %4
  %indvars.iv.next.i = add nuw nsw i64 %indvars.iv.i, 1
  %exitcond.not.i = icmp eq i64 %indvars.iv.next.i, 66
  br i1 %exitcond.not.i, label %parse_msg_id.exit.thread, label %4, !llvm.loop !19

parse_msg_id.exit.thread:                         ; preds = %8
  tail call void (ptr, ...) @die(ptr noundef nonnull @.str, ptr noundef nonnull %1) #18
  unreachable

parse_msg_id.exit:                                ; preds = %4
  %9 = icmp eq i64 %indvars.iv.i, 53
  br i1 %9, label %10, label %20

10:                                               ; preds = %parse_msg_id.exit
  %11 = tail call ptr @strchr(ptr noundef nonnull dereferenceable(1) %2, i32 noundef 58) #17
  %.not = icmp eq ptr %11, null
  br i1 %.not, label %20, label %12

12:                                               ; preds = %10
  %13 = ptrtoint ptr %11 to i64
  %14 = ptrtoint ptr %2 to i64
  %15 = sub i64 %13, %14
  %16 = tail call ptr @xmemdupz(ptr noundef nonnull %2, i64 noundef %15) #16
  %17 = getelementptr inbounds nuw i8, ptr %11, i64 1
  %18 = tail call i32 @git_parse_ssize_t(ptr noundef nonnull %17, ptr noundef nonnull @max_tree_entry_len) #16
  %.not26 = icmp eq i32 %18, 0
  br i1 %.not26, label %19, label %20

19:                                               ; preds = %12
  tail call void (ptr, ...) @die(ptr noundef nonnull @.str.1, ptr noundef nonnull %17) #18
  unreachable

20:                                               ; preds = %10, %12, %parse_msg_id.exit
  %.020 = phi ptr [ null, %parse_msg_id.exit ], [ %16, %12 ], [ null, %10 ]
  %.0 = phi ptr [ %2, %parse_msg_id.exit ], [ %16, %12 ], [ %2, %10 ]
  %21 = tail call i32 @strcmp(ptr noundef nonnull dereferenceable(1) %.0, ptr noundef nonnull dereferenceable(6) @.str.102) #17
  %.not.i28 = icmp eq i32 %21, 0
  br i1 %.not.i28, label %.split, label %22

22:                                               ; preds = %20
  %23 = tail call i32 @strcmp(ptr noundef nonnull dereferenceable(1) %.0, ptr noundef nonnull dereferenceable(5) @.str.103) #17
  %.not4.i = icmp eq i32 %23, 0
  br i1 %.not4.i, label %45, label %24

24:                                               ; preds = %22
  %25 = tail call i32 @strcmp(ptr noundef nonnull dereferenceable(1) %.0, ptr noundef nonnull dereferenceable(7) @.str.104) #17
  %.not5.i = icmp eq i32 %25, 0
  br i1 %.not5.i, label %45, label %26

26:                                               ; preds = %24
  tail call void (ptr, ...) @die(ptr noundef nonnull @.str.105, ptr noundef nonnull %.0) #18
  unreachable

.split:                                           ; preds = %20
  %27 = getelementptr inbounds nuw i8, ptr %0, i64 24
  %28 = load ptr, ptr %27, align 8, !tbaa !20
  %.not.i29 = icmp eq ptr %28, null
  br i1 %.not.i29, label %29, label %fsck_set_msg_type_from_ids.exit

29:                                               ; preds = %.split
  %30 = tail call ptr @xmalloc(i64 noundef 264) #16
  %31 = load ptr, ptr %27, align 8, !tbaa !20
  %.not.i.i = icmp eq ptr %31, null
  %32 = getelementptr inbounds nuw i8, ptr %0, i64 16
  br i1 %.not.i.i, label %fsck_msg_type.exit.us.i, label %fsck_msg_type.exit.i

fsck_msg_type.exit.us.i:                          ; preds = %29, %fsck_msg_type.exit.us.i
  %indvars.iv16.i = phi i64 [ %indvars.iv.next17.i, %fsck_msg_type.exit.us.i ], [ 0, %29 ]
  %33 = getelementptr inbounds nuw [67 x %struct.anon], ptr @msg_id_info, i64 0, i64 %indvars.iv16.i, i32 3
  %34 = load i32, ptr %33, align 8, !tbaa !27
  %35 = load i32, ptr %32, align 8, !tbaa !28
  %36 = icmp ne i32 %35, 0
  %37 = icmp eq i32 %34, 4
  %or.cond.i.us.i = select i1 %36, i1 %37, i1 false
  %spec.store.select.i.us.i = select i1 %or.cond.i.us.i, i32 3, i32 %34
  %38 = getelementptr inbounds nuw i32, ptr %30, i64 %indvars.iv16.i
  store i32 %spec.store.select.i.us.i, ptr %38, align 4, !tbaa !29
  %indvars.iv.next17.i = add nuw nsw i64 %indvars.iv16.i, 1
  %exitcond19.not.i = icmp eq i64 %indvars.iv.next17.i, 66
  br i1 %exitcond19.not.i, label %.split13.us.i, label %fsck_msg_type.exit.us.i, !llvm.loop !30

fsck_msg_type.exit.i:                             ; preds = %29, %fsck_msg_type.exit.i
  %indvars.iv.i30 = phi i64 [ %indvars.iv.next.i31, %fsck_msg_type.exit.i ], [ 0, %29 ]
  %39 = getelementptr inbounds nuw i32, ptr %31, i64 %indvars.iv.i30
  %40 = load i32, ptr %39, align 4, !tbaa !29
  %41 = getelementptr inbounds nuw i32, ptr %30, i64 %indvars.iv.i30
  store i32 %40, ptr %41, align 4, !tbaa !29
  %indvars.iv.next.i31 = add nuw nsw i64 %indvars.iv.i30, 1
  %exitcond.not.i32 = icmp eq i64 %indvars.iv.next.i31, 66
  br i1 %exitcond.not.i32, label %.split13.us.i, label %fsck_msg_type.exit.i, !llvm.loop !30

.split13.us.i:                                    ; preds = %fsck_msg_type.exit.i, %fsck_msg_type.exit.us.i
  store ptr %30, ptr %27, align 8, !tbaa !20
  br label %fsck_set_msg_type_from_ids.exit

fsck_set_msg_type_from_ids.exit:                  ; preds = %.split, %.split13.us.i
  %42 = phi ptr [ %30, %.split13.us.i ], [ %28, %.split ]
  %43 = and i64 %indvars.iv.i, 4294967295
  %44 = getelementptr inbounds nuw i32, ptr %42, i64 %43
  store i32 3, ptr %44, align 4, !tbaa !29
  br label %68

45:                                               ; preds = %22, %24
  %.0.i.ph = phi i32 [ 0, %24 ], [ 4, %22 ]
  %46 = and i64 %indvars.iv.i, 4294967295
  %47 = getelementptr inbounds nuw [67 x %struct.anon], ptr @msg_id_info, i64 0, i64 %46, i32 3
  %48 = load i32, ptr %47, align 8, !tbaa !27
  %49 = icmp eq i32 %48, 2
  br i1 %49, label %67, label %.split22

.split22:                                         ; preds = %45
  %50 = getelementptr inbounds nuw i8, ptr %0, i64 24
  %51 = load ptr, ptr %50, align 8, !tbaa !20
  %.not.i33 = icmp eq ptr %51, null
  br i1 %.not.i33, label %52, label %fsck_set_msg_type_from_ids.exit46

52:                                               ; preds = %.split22
  %53 = tail call ptr @xmalloc(i64 noundef 264) #16
  %54 = load ptr, ptr %50, align 8, !tbaa !20
  %.not.i.i34 = icmp eq ptr %54, null
  %55 = getelementptr inbounds nuw i8, ptr %0, i64 16
  br i1 %.not.i.i34, label %fsck_msg_type.exit.us.i40, label %fsck_msg_type.exit.i35

fsck_msg_type.exit.us.i40:                        ; preds = %52, %fsck_msg_type.exit.us.i40
  %indvars.iv16.i41 = phi i64 [ %indvars.iv.next17.i44, %fsck_msg_type.exit.us.i40 ], [ 0, %52 ]
  %56 = getelementptr inbounds nuw [67 x %struct.anon], ptr @msg_id_info, i64 0, i64 %indvars.iv16.i41, i32 3
  %57 = load i32, ptr %56, align 8, !tbaa !27
  %58 = load i32, ptr %55, align 8, !tbaa !28
  %59 = icmp ne i32 %58, 0
  %60 = icmp eq i32 %57, 4
  %or.cond.i.us.i42 = select i1 %59, i1 %60, i1 false
  %spec.store.select.i.us.i43 = select i1 %or.cond.i.us.i42, i32 3, i32 %57
  %61 = getelementptr inbounds nuw i32, ptr %53, i64 %indvars.iv16.i41
  store i32 %spec.store.select.i.us.i43, ptr %61, align 4, !tbaa !29
  %indvars.iv.next17.i44 = add nuw nsw i64 %indvars.iv16.i41, 1
  %exitcond19.not.i45 = icmp eq i64 %indvars.iv.next17.i44, 66
  br i1 %exitcond19.not.i45, label %.split13.us.i39, label %fsck_msg_type.exit.us.i40, !llvm.loop !30

fsck_msg_type.exit.i35:                           ; preds = %52, %fsck_msg_type.exit.i35
  %indvars.iv.i36 = phi i64 [ %indvars.iv.next.i37, %fsck_msg_type.exit.i35 ], [ 0, %52 ]
  %62 = getelementptr inbounds nuw i32, ptr %54, i64 %indvars.iv.i36
  %63 = load i32, ptr %62, align 4, !tbaa !29
  %64 = getelementptr inbounds nuw i32, ptr %53, i64 %indvars.iv.i36
  store i32 %63, ptr %64, align 4, !tbaa !29
  %indvars.iv.next.i37 = add nuw nsw i64 %indvars.iv.i36, 1
  %exitcond.not.i38 = icmp eq i64 %indvars.iv.next.i37, 66
  br i1 %exitcond.not.i38, label %.split13.us.i39, label %fsck_msg_type.exit.i35, !llvm.loop !30

.split13.us.i39:                                  ; preds = %fsck_msg_type.exit.i35, %fsck_msg_type.exit.us.i40
  store ptr %53, ptr %50, align 8, !tbaa !20
  br label %fsck_set_msg_type_from_ids.exit46

fsck_set_msg_type_from_ids.exit46:                ; preds = %.split22, %.split13.us.i39
  %65 = phi ptr [ %53, %.split13.us.i39 ], [ %51, %.split22 ]
  %66 = getelementptr inbounds nuw i32, ptr %65, i64 %46
  store i32 %.0.i.ph, ptr %66, align 4, !tbaa !29
  br label %68

67:                                               ; preds = %45
  tail call void (ptr, ...) @die(ptr noundef nonnull @.str.2, ptr noundef nonnull %1, ptr noundef nonnull %.0) #18
  unreachable

68:                                               ; preds = %fsck_set_msg_type_from_ids.exit46, %fsck_set_msg_type_from_ids.exit
  tail call void @free(ptr noundef %.020) #16
  ret void
}